target datalayout = "e-m:e-p270:32:32-p271:32:32-p272:64:64-i64:64-i128:128-f80:128-n8:16:32:64-S128"
target triple = "x86_64-pc-linux-gnu"

%struct.expert_field = type { i32, i32 }

@hf_openflow_v5_match_type = internal global i32 0, align 4
@hf_openflow_v5_match_length = internal global i32 0, align 4
@hf_openflow_v5_match_pad = internal global i32 0, align 4
@ett_openflow_v5_match = internal global i32 0, align 4
@ei_openflow_v5_match_undecoded = internal global %struct.expert_field zeroinitializer, align 4
@.str.955 = private unnamed_addr constant [20 x i8] c"Unknown match body.\00", align 1
@ei_openflow_v5_length_too_short = internal global %struct.expert_field zeroinitializer, align 4
@.str.1450 = private unnamed_addr constant [6 x i8] c"Match\00", align 1
@.str.1451 = private unnamed_addr constant [34 x i8] c"Standard match body (deprecated).\00", align 1

; Function Attrs: null_pointer_is_valid sspstrong uwtable
define internal i32 @dissect_openflow_match_v5(ptr noundef %0, ptr noundef %1, ptr noundef %2, i32 noundef %3, i16 noundef zeroext %4) #0 {
  %6 = alloca i32, align 4
  %7 = alloca ptr, align 8
  %8 = alloca ptr, align 8
  %9 = alloca ptr, align 8
  %10 = alloca i32, align 4
  %11 = alloca i16, align 2
  %12 = alloca ptr, align 8
  %13 = alloca ptr, align 8
  %14 = alloca i16, align 2
  %15 = alloca i16, align 2
  %16 = alloca i32, align 4
  %17 = alloca i16, align 2
  %18 = alloca i32, align 4
  store ptr %0, ptr %7, align 8
  store ptr %1, ptr %8, align 8
  store ptr %2, ptr %9, align 8
  store i32 %3, ptr %10, align 4
  store i16 %4, ptr %11, align 2
  call void @llvm.lifetime.start.p0(i64 8, ptr %12) #5
  call void @llvm.lifetime.start.p0(i64 8, ptr %13) #5
  call void @llvm.lifetime.start.p0(i64 2, ptr %14) #5
  call void @llvm.lifetime.start.p0(i64 2, ptr %15) #5
  call void @llvm.lifetime.start.p0(i64 4, ptr %16) #5
  call void @llvm.lifetime.start.p0(i64 2, ptr %17) #5
  %19 = load ptr, ptr %9, align 8
  %20 = load ptr, ptr %7, align 8
  %21 = load i32, ptr %10, align 4
  %22 = load i32, ptr @ett_openflow_v5_match, align 4
  %23 = call ptr @proto_tree_add_subtree(ptr noundef %19, ptr noundef %20, i32 noundef %21, i32 noundef -1, i32 noundef %22, ptr noundef %12, ptr noundef @.str.1450)
  store ptr %23, ptr %13, align 8
  %24 = load ptr, ptr %7, align 8
  %25 = load i32, ptr %10, align 4
  %26 = call zeroext i16 @tvb_get_ntohs(ptr noundef %24, i32 noundef %25)
  store i16 %26, ptr %14, align 2
  %27 = load ptr, ptr %13, align 8
  %28 = load i32, ptr @hf_openflow_v5_match_type, align 4
  %29 = load ptr, ptr %7, align 8
  %30 = load i32, ptr %10, align 4
  %31 = call ptr @proto_tree_add_item(ptr noundef %27, i32 noundef %28, ptr noundef %29, i32 noundef %30, i32 noundef 2, i32 noundef 0)
  %32 = load i32, ptr %10, align 4
  %33 = add i32 %32, 2
  store i32 %33, ptr %10, align 4
  %34 = load ptr, ptr %7, align 8
  %35 = load i32, ptr %10, align 4
  %36 = call zeroext i16 @tvb_get_ntohs(ptr noundef %34, i32 noundef %35)
  store i16 %36, ptr %15, align 2
  %37 = load i16, ptr %15, align 2
  %38 = zext i16 %37 to i32
  %39 = add i32 %38, 7
  %40 = sdiv i32 %39, 8
  %41 = mul i32 %40, 8
  %42 = load i16, ptr %15, align 2
  %43 = zext i16 %42 to i32
  %44 = sub i32 %41, %43
  %45 = trunc i32 %44 to i16
  store i16 %45, ptr %17, align 2
  %46 = load ptr, ptr %12, align 8
  %47 = load i16, ptr %15, align 2
  %48 = zext i16 %47 to i32
  %49 = load i16, ptr %17, align 2
  %50 = zext i16 %49 to i32
  %51 = add i32 %48, %50
  call void @proto_item_set_len(ptr noundef %46, i32 noundef %51)
  %52 = load ptr, ptr %13, align 8
  %53 = load i32, ptr @hf_openflow_v5_match_length, align 4
  %54 = load ptr, ptr %7, align 8
  %55 = load i32, ptr %10, align 4
  %56 = call ptr @proto_tree_add_item(ptr noundef %52, i32 noundef %53, ptr noundef %54, i32 noundef %55, i32 noundef 2, i32 noundef 0)
  store ptr %56, ptr %12, align 8
  %57 = load i32, ptr %10, align 4
  %58 = add i32 %57, 2
  store i32 %58, ptr %10, align 4
  %59 = load i16, ptr %15, align 2
  %60 = zext i16 %59 to i32
  %61 = icmp slt i32 %60, 4
  br i1 %61, label %62, label %67

62:                                               ; preds = %5
  %63 = load ptr, ptr %8, align 8
  %64 = load ptr, ptr %12, align 8
  %65 = call ptr @expert_add_info(ptr noundef %63, ptr noundef %64, ptr noundef @ei_openflow_v5_length_too_short)
  %66 = load i32, ptr %10, align 4
  store i32 %66, ptr %6, align 4
  store i32 1, ptr %18, align 4
  br label %154

67:                                               ; preds = %5
  %68 = load i16, ptr %14, align 2
  %69 = zext i16 %68 to i32
  switch i32 %69, label %112 [
    i32 0, label %70
    i32 1, label %94
  ]

70:                                               ; preds = %67
  %71 = load i16, ptr %15, align 2
  %72 = zext i16 %71 to i32
  %73 = icmp sle i32 %72, 4
  br i1 %73, label %74, label %80

74:                                               ; preds = %70
  %75 = load ptr, ptr %8, align 8
  %76 = load ptr, ptr %12, align 8
  %77 = call ptr @expert_add_info(ptr noundef %75, ptr noundef %76, ptr noundef @ei_openflow_v5_length_too_short)
  %78 = load i16, ptr %11, align 2
  %79 = zext i16 %78 to i32
  store i32 %79, ptr %10, align 4
  br label %136

80:                                               ; preds = %70
  %81 = load ptr, ptr %13, align 8
  %82 = load ptr, ptr %8, align 8
  %83 = load ptr, ptr %7, align 8
  %84 = load i32, ptr %10, align 4
  %85 = load i16, ptr %15, align 2
  %86 = zext i16 %85 to i32
  %87 = sub i32 %86, 4
  %88 = call ptr (ptr, ptr, ptr, ptr, i32, i32, ptr, ...) @proto_tree_add_expert_format(ptr noundef %81, ptr noundef %82, ptr noundef @ei_openflow_v5_match_undecoded, ptr noundef %83, i32 noundef %84, i32 noundef %87, ptr noundef @.str.1451)
  %89 = load i16, ptr %15, align 2
  %90 = zext i16 %89 to i32
  %91 = sub i32 %90, 4
  %92 = load i32, ptr %10, align 4
  %93 = add i32 %92, %91
  store i32 %93, ptr %10, align 4
  br label %136

94:                                               ; preds = %67
  %95 = load i32, ptr %10, align 4
  %96 = load i16, ptr %15, align 2
  %97 = zext i16 %96 to i32
  %98 = add i32 %95, %97
  %99 = sub i32 %98, 4
  store i32 %99, ptr %16, align 4
  br label %100

100:                                              ; preds = %104, %94
  %101 = load i32, ptr %10, align 4
  %102 = load i32, ptr %16, align 4
  %103 = icmp slt i32 %101, %102
  br i1 %103, label %104, label %111

104:                                              ; preds = %100
  %105 = load ptr, ptr %7, align 8
  %106 = load ptr, ptr %8, align 8
  %107 = load ptr, ptr %13, align 8
  %108 = load i32, ptr %10, align 4
  %109 = load i16, ptr %11, align 2
  %110 = call i32 @dissect_openflow_oxm_v5(ptr noundef %105, ptr noundef %106, ptr noundef %107, i32 noundef %108, i16 noundef zeroext %109)
  store i32 %110, ptr %10, align 4
  br label %100, !llvm.loop !33

111:                                              ; preds = %100
  br label %136

112:                                              ; preds = %67
  %113 = load i16, ptr %15, align 2
  %114 = zext i16 %113 to i32
  %115 = icmp sle i32 %114, 4
  br i1 %115, label %116, label %122

116:                                              ; preds = %112
  %117 = load ptr, ptr %8, align 8
  %118 = load ptr, ptr %12, align 8
  %119 = call ptr @expert_add_info(ptr noundef %117, ptr noundef %118, ptr noundef @ei_openflow_v5_length_too_short)
  %120 = load i16, ptr %11, align 2
  %121 = zext i16 %120 to i32
  store i32 %121, ptr %10, align 4
  br label %136

122:                                              ; preds = %112
  %123 = load ptr, ptr %13, align 8
  %124 = load ptr, ptr %8, align 8
  %125 = load ptr, ptr %7, align 8
  %126 = load i32, ptr %10, align 4
  %127 = load i16, ptr %15, align 2
  %128 = zext i16 %127 to i32
  %129 = sub i32 %128, 4
  %130 = call ptr (ptr, ptr, ptr, ptr, i32, i32, ptr, ...) @proto_tree_add_expert_format(ptr noundef %123, ptr noundef %124, ptr noundef @ei_openflow_v5_match_undecoded, ptr noundef %125, i32 noundef %126, i32 noundef %129, ptr noundef @.str.955)
  %131 = load i16, ptr %15, align 2
  %132 = zext i16 %131 to i32
  %133 = sub i32 %132, 4
  %134 = load i32, ptr %10, align 4
  %135 = add i32 %134, %133
  store i32 %135, ptr %10, align 4
  br label %136

136:                                              ; preds = %122, %116, %111, %80, %74
  %137 = load i16, ptr %17, align 2
  %138 = zext i16 %137 to i32
  %139 = icmp sgt i32 %138, 0
  br i1 %139, label %140, label %152

140:                                              ; preds = %136
  %141 = load ptr, ptr %13, align 8
  %142 = load i32, ptr @hf_openflow_v5_match_pad, align 4
  %143 = load ptr, ptr %7, align 8
  %144 = load i32, ptr %10, align 4
  %145 = load i16, ptr %17, align 2
  %146 = zext i16 %145 to i32
  %147 = call ptr @proto_tree_add_item(ptr noundef %141, i32 noundef %142, ptr noundef %143, i32 noundef %144, i32 noundef %146, i32 noundef 0)
  %148 = load i16, ptr %17, align 2
  %149 = zext i16 %148 to i32
  %150 = load i32, ptr %10, align 4
  %151 = add i32 %150, %149
  store i32 %151, ptr %10, align 4
  br label %152

152:                                              ; preds = %140, %136
  %153 = load i32, ptr %10, align 4
  store i32 %153, ptr %6, align 4
  store i32 1, ptr %18, align 4
  br label %154

154:                                              ; preds = %152, %62
  call void @llvm.lifetime.end.p0(i64 2, ptr %17) #5
  call void @llvm.lifetime.end.p0(i64 4, ptr %16) #5
  call void @llvm.lifetime.end.p0(i64 2, ptr %15) #5
  call void @llvm.lifetime.end.p0(i64 2, ptr %14) #5
  call void @llvm.lifetime.end.p0(i64 8, ptr %13) #5
  call void @llvm.lifetime.end.p0(i64 8, ptr %12) #5
  %155 = load i32, ptr %6, align 4
  ret i32 %155
}