; Function Attrs: null_pointer_is_valid sspstrong uwtable
define internal fastcc i32 @dissect_openflow_match_v5(ptr noundef %0, ptr noundef %1, ptr noundef %2, i32 noundef %3, i16 noundef zeroext %4) unnamed_addr #0 {
  %6 = alloca ptr, align 8
  call void @llvm.lifetime.start.p0(i64 8, ptr nonnull %6) #4
  %7 = load i32, ptr @ett_openflow_v5_match, align 4
  %8 = call ptr @proto_tree_add_subtree(ptr noundef %2, ptr noundef %0, i32 noundef %3, i32 noundef -1, i32 noundef %7, ptr noundef nonnull %6, ptr noundef nonnull @.str.1450)
  %9 = call zeroext i16 @tvb_get_ntohs(ptr noundef %0, i32 noundef %3)
  %10 = load i32, ptr @hf_openflow_v5_match_type, align 4
  %11 = call ptr @proto_tree_add_item(ptr noundef %8, i32 noundef %10, ptr noundef %0, i32 noundef %3, i32 noundef 2, i32 noundef 0)
  %12 = add i32 %3, 2
  %13 = call zeroext i16 @tvb_get_ntohs(ptr noundef %0, i32 noundef %12)
  %14 = zext i16 %13 to i32
  %15 = add i16 %13, 7
  %16 = and i16 %15, -8
  %17 = sub i16 %16, %13
  %18 = load ptr, ptr %6, align 8
  %19 = zext i16 %17 to i32
  %20 = add nuw nsw i32 %19, %14
  call void @proto_item_set_len(ptr noundef %18, i32 noundef %20)
  %21 = load i32, ptr @hf_openflow_v5_match_length, align 4
  %22 = call ptr @proto_tree_add_item(ptr noundef %8, i32 noundef %21, ptr noundef %0, i32 noundef %12, i32 noundef 2, i32 noundef 0)
  store ptr %22, ptr %6, align 8
  %23 = add i32 %3, 4
  %24 = icmp ult i16 %13, 4
  br i1 %24, label %25, label %27

25:                                               ; preds = %5
  %26 = call ptr @expert_add_info(ptr noundef %1, ptr noundef %22, ptr noundef nonnull @ei_openflow_v5_length_too_short)
  br label %55

27:                                               ; preds = %5
  switch i16 %9, label %42 [
    i16 0, label %28
    i16 1, label %37
  ]

28:                                               ; preds = %27
  %29 = icmp eq i16 %13, 4
  br i1 %29, label %30, label %33

30:                                               ; preds = %28
  %31 = call ptr @expert_add_info(ptr noundef %1, ptr noundef %22, ptr noundef nonnull @ei_openflow_v5_length_too_short)
  %32 = zext i16 %4 to i32
  br label %.loopexit

33:                                               ; preds = %28
  %34 = add nsw i32 %14, -4
  %35 = call ptr (ptr, ptr, ptr, ptr, i32, i32, ptr, ...) @proto_tree_add_expert_format(ptr noundef %8, ptr noundef %1, ptr noundef nonnull @ei_openflow_v5_match_undecoded, ptr noundef %0, i32 noundef %23, i32 noundef %34, ptr noundef nonnull @.str.1451)
  %36 = add i32 %3, %14
  br label %.loopexit

37:                                               ; preds = %27
  %38 = add i32 %3, %14
  %39 = icmp slt i32 %23, %38
  br i1 %39, label %.lr.ph, label %.loopexit

.lr.ph:                                           ; preds = %37, %.lr.ph
  %.163 = phi i32 [ %40, %.lr.ph ], [ %23, %37 ]
  %40 = call fastcc i32 @dissect_openflow_oxm_v5(ptr noundef %0, ptr noundef %1, ptr noundef %8, i32 noundef %.163)
  %41 = icmp slt i32 %40, %38
  br i1 %41, label %.lr.ph, label %.loopexit, !llvm.loop !40

42:                                               ; preds = %27
  %43 = icmp eq i16 %13, 4
  br i1 %43, label %44, label %47

44:                                               ; preds = %42
  %45 = call ptr @expert_add_info(ptr noundef %1, ptr noundef %22, ptr noundef nonnull @ei_openflow_v5_length_too_short)
  %46 = zext i16 %4 to i32
  br label %.loopexit

47:                                               ; preds = %42
  %48 = add nsw i32 %14, -4
  %49 = call ptr (ptr, ptr, ptr, ptr, i32, i32, ptr, ...) @proto_tree_add_expert_format(ptr noundef %8, ptr noundef %1, ptr noundef nonnull @ei_openflow_v5_match_undecoded, ptr noundef %0, i32 noundef %23, i32 noundef %48, ptr noundef nonnull @.str.955)
  %50 = add i32 %3, %14
  br label %.loopexit

.loopexit:                                        ; preds = %.lr.ph, %37, %47, %44, %33, %30
  %.060 = phi i32 [ %46, %44 ], [ %50, %47 ], [ %32, %30 ], [ %36, %33 ], [ %23, %37 ], [ %40, %.lr.ph ]
  %.not = icmp eq i16 %16, %13
  br i1 %.not, label %55, label %51

51:                                               ; preds = %.loopexit
  %52 = load i32, ptr @hf_openflow_v5_match_pad, align 4
  %53 = call ptr @proto_tree_add_item(ptr noundef %8, i32 noundef %52, ptr noundef %0, i32 noundef %.060, i32 noundef %19, i32 noundef 0)
  %54 = add i32 %.060, %19
  br label %55

55:                                               ; preds = %.loopexit, %51, %25
  %.0 = phi i32 [ %23, %25 ], [ %54, %51 ], [ %.060, %.loopexit ]
  call void @llvm.lifetime.end.p0(i64 8, ptr nonnull %6) #4
  ret i32 %.0
}